target datalayout = "e-m:e-p270:32:32-p271:32:32-p272:64:64-i64:64-i128:128-f80:128-n8:16:32:64-S128"
target triple = "x86_64-pc-linux-gnu"

%struct.expert_field = type { i32, i32 }

@hf_nan_attr_connection_cap_bitmap = internal global i32 0, align 4
@ett_connection_cap_field = internal global i32 0, align 4
@ei_nan_elem_len_invalid = internal global %struct.expert_field zeroinitializer, align 4

; Function Attrs: null_pointer_is_valid sspstrong uwtable
define internal void @dissect_attr_connection_capability(ptr noundef %0, ptr noundef %1, i32 noundef %2, i16 noundef zeroext %3, ptr noundef %4) #0 {
  %6 = alloca ptr, align 8
  %7 = alloca ptr, align 8
  %8 = alloca i32, align 4
  %9 = alloca i16, align 2
  %10 = alloca ptr, align 8
  store ptr %0, ptr %6, align 8
  store ptr %1, ptr %7, align 8
  store i32 %2, ptr %8, align 4
  store i16 %3, ptr %9, align 2
  store ptr %4, ptr %10, align 8
  %11 = load i16, ptr %9, align 2
  %12 = zext i16 %11 to i32
  %13 = icmp ne i32 %12, 2
  br i1 %13, label %14, label %18

14:                                               ; preds = %5
  %15 = load ptr, ptr %10, align 8
  %16 = load ptr, ptr %6, align 8
  %17 = call ptr @expert_add_info(ptr noundef %15, ptr noundef %16, ptr noundef @ei_nan_elem_len_invalid)
  br label %26

18:                                               ; preds = %5
  %19 = load ptr, ptr %6, align 8
  %20 = load ptr, ptr %7, align 8
  %21 = load i32, ptr %8, align 4
  %22 = add i32 %21, 3
  %23 = load i32, ptr @hf_nan_attr_connection_cap_bitmap, align 4
  %24 = load i32, ptr @ett_connection_cap_field, align 4
  %25 = call ptr @proto_tree_add_bitmask(ptr noundef %19, ptr noundef %20, i32 noundef %22, i32 noundef %23, i32 noundef %24, ptr noundef @dissect_attr_connection_capability.connection_cap_bitmap_fields, i32 noundef -2147483648)
  br label %26

26:                                               ; preds = %18, %14
  ret void
}