; Function Attrs: null_pointer_is_valid sspstrong uwtable
define internal fastcc void @dissect_attr_connection_capability(ptr noundef %0, ptr noundef %1, i32 noundef %2, i16 noundef zeroext %3, ptr noundef %4) unnamed_addr #0 {
  %.not = icmp eq i16 %3, 2
  br i1 %.not, label %8, label %6

6:                                                ; preds = %5
  %7 = tail call ptr @expert_add_info(ptr noundef %4, ptr noundef %0, ptr noundef nonnull @ei_nan_elem_len_invalid)
  br label %13

8:                                                ; preds = %5
  %9 = add i32 %2, 3
  %10 = load i32, ptr @hf_nan_attr_connection_cap_bitmap, align 4
  %11 = load i32, ptr @ett_connection_cap_field, align 4
  %12 = tail call ptr @proto_tree_add_bitmask(ptr noundef %0, ptr noundef %1, i32 noundef %9, i32 noundef %10, i32 noundef %11, ptr noundef nonnull @dissect_attr_connection_capability.connection_cap_bitmap_fields, i32 noundef -2147483648)
  br label %13

13:                                               ; preds = %8, %6
  ret void
}